Certificate:
    Data:
        Version: 3 (0x2)
        Serial Number: 3 (0x3)
        Signature Algorithm: sha256WithRSAEncryption
        Issuer: C=US, ST=WY, L=Casper, O=Asymworks, LLC, OU=Asymworks PKI, CN=Asymworks Root CA 02
        Validity
            Not Before: May 24 23:09:01 2025 GMT
            Not After : May 19 23:09:01 2045 GMT
        Subject: C=US, ST=WY, L=Casper, O=Asymworks, LLC, OU=Asymworks PKI, CN=Asymworks Network CA 02
        Subject Public Key Info:
            Public Key Algorithm: rsaEncryption
                Public-Key: (2048 bit)
                Modulus:
                    00:b5:d0:9a:2a:fa:81:c6:7a:d7:6e:bb:85:e7:b4:
                    0b:3a:0f:52:34:23:3e:2f:3a:df:83:1d:55:9a:df:
                    e8:a2:70:d0:71:c0:1a:a1:8a:93:01:82:d8:a1:84:
                    a0:d3:2b:32:76:ea:99:4a:96:4d:cf:2f:a4:29:c1:
                    90:07:5a:6e:55:9f:40:7b:09:fb:3d:bd:a1:ef:dc:
                    b7:15:b4:50:d2:e3:0e:5c:c5:2c:ac:4f:9a:06:7a:
                    de:ae:de:b7:2a:15:ab:f1:6e:4c:0f:d5:d1:87:1f:
                    a1:cd:e3:36:8a:d5:7d:a4:a1:e0:a6:5c:05:b7:4e:
                    d3:99:2a:40:98:de:b9:a7:24:d9:43:44:04:f5:47:
                    cd:c1:99:ea:3e:40:02:c3:8b:e7:7e:01:ba:f3:42:
                    92:c0:38:1b:e4:a4:d7:e5:36:8e:c4:a8:08:4e:0b:
                    69:e9:99:6f:61:ec:bb:74:25:3a:8c:eb:04:0a:a5:
                    12:3f:ac:43:8c:12:ba:93:a6:86:ba:ea:d7:2d:c2:
                    5f:e9:04:36:89:ea:ce:b6:8c:9e:40:89:82:46:64:
                    82:0e:e8:01:49:3f:2b:53:4a:27:dc:94:d5:fa:a1:
                    ec:33:3b:8b:ad:02:05:25:5b:e7:17:d6:85:40:91:
                    6a:be:bd:dc:b9:e4:fb:3e:5b:58:f2:1e:e9:24:7a:
                    f2:87
                Exponent: 65537 (0x10001)
        X509v3 extensions:
            X509v3 Key Usage: critical
                Certificate Sign, CRL Sign
            X509v3 Basic Constraints: critical
                CA:TRUE, pathlen:0
            X509v3 Subject Key Identifier: 
                C2:51:66:BF:B3:20:4C:E4:96:C3:47:4A:D6:04:48:C2:11:E2:2D:BA
            X509v3 Authority Key Identifier: 
                2F:EB:7D:42:0B:EA:30:43:94:D3:29:01:EE:94:07:AD:99:EB:F9:CF
            Authority Information Access: 
                CA Issuers - URI:http://pki.asymworks.net/root-ca-02.cer
            X509v3 CRL Distribution Points: 
                Full Name:
                  URI:http://pki.asymworks.net/root-ca-02.crl

    Signature Algorithm: sha256WithRSAEncryption
    Signature Value:
        a3:f6:93:42:0c:b3:df:85:92:6d:4b:eb:d6:47:0e:00:0c:e3:
        36:78:4b:8d:99:79:d8:97:16:b5:a6:2e:76:61:d4:43:51:d8:
        9b:be:37:21:4b:18:31:b7:99:58:5a:fa:54:96:10:13:62:35:
        b8:cd:b5:21:f5:23:5f:b8:8b:d7:5f:dc:c1:61:62:c6:8e:69:
        fb:14:5b:1e:14:b5:fb:86:d1:a7:25:76:64:89:1e:46:e3:10:
        5c:49:0d:31:80:6a:cc:50:19:97:1e:48:e5:b6:c2:2c:8d:08:
        47:ce:4b:0c:90:d8:84:a3:87:6d:8e:f6:1f:f0:85:2b:d0:3d:
        5a:ba:ae:40:be:7e:d3:5e:7b:aa:9b:16:e5:94:d3:84:f0:a1:
        82:f8:e1:d3:fb:56:a5:fa:1c:45:cf:48:05:d6:29:13:19:3f:
        b9:83:a2:aa:ae:df:3e:e6:e4:11:09:12:47:5c:3a:50:d8:24:
        ba:ef:56:5c:6b:e4:db:38:a0:15:e8:62:fc:d4:12:81:db:ca:
        ca:48:25:1e:5d:4a:57:72:d4:30:27:75:0c:88:dd:9c:2e:c3:
        ba:de:65:f8:97:a1:69:70:b0:6a:a2:b6:88:ca:78:b3:26:90:
        62:2e:5e:a2:1d:4f:ba:86:15:36:50:60:d0:f7:31:27:7a:cd:
        c0:0b:f4:9f
-----BEGIN CERTIFICATE-----
MIIEWzCCA0OgAwIBAgIBAzANBgkqhkiG9w0BAQsFADB7MQswCQYDVQQGEwJVUzEL
MAkGA1UECAwCV1kxDzANBgNVBAcMBkNhc3BlcjEXMBUGA1UECgwOQXN5bXdvcmtz
LCBMTEMxFjAUBgNVBAsMDUFzeW13b3JrcyBQS0kxHTAbBgNVBAMMFEFzeW13b3Jr
cyBSb290IENBIDAyMB4XDTI1MDUyNDIzMDkwMVoXDTQ1MDUxOTIzMDkwMVowfjEL
MAkGA1UEBhMCVVMxCzAJBgNVBAgMAldZMQ8wDQYDVQQHDAZDYXNwZXIxFzAVBgNV
BAoMDkFzeW13b3JrcywgTExDMRYwFAYDVQQLDA1Bc3ltd29ya3MgUEtJMSAwHgYD
VQQDDBdBc3ltd29ya3MgTmV0d29yayBDQSAwMjCCASIwDQYJKoZIhvcNAQEBBQAD
ggEPADCCAQoCggEBALXQmir6gcZ61267hee0CzoPUjQjPi8634MdVZrf6KJw0HHA
GqGKkwGC2KGEoNMrMnbqmUqWTc8vpCnBkAdablWfQHsJ+z29oe/ctxW0UNLjDlzF
LKxPmgZ63q7etyoVq/FuTA/V0Ycfoc3jNorVfaSh4KZcBbdO05kqQJjeuack2UNE
BPVHzcGZ6j5AAsOL534BuvNCksA4G+Sk1+U2jsSoCE4LaemZb2Hsu3QlOozrBAql
Ej+sQ4wSupOmhrrq1y3CX+kENonqzraMnkCJgkZkgg7oAUk/K1NKJ9yU1fqh7DM7
i60CBSVb5xfWhUCRar693Lnk+z5bWPIe6SR68ocCAwEAAaOB5jCB4zAOBgNVHQ8B
Af8EBAMCAQYwEgYDVR0TAQH/BAgwBgEB/wIBADAdBgNVHQ4EFgQUwlFmv7MgTOSW
w0dK1gRIwhHiLbowHwYDVR0jBBgwFoAUL+t9QgvqMEOU0ykB7pQHrZnr+c8wQwYI
KwYBBQUHAQEENzA1MDMGCCsGAQUFBzAChidodHRwOi8vcGtpLmFzeW13b3Jrcy5u
ZXQvcm9vdC1jYS0wMi5jZXIwOAYDVR0fBDEwLzAtoCugKYYnaHR0cDovL3BraS5h
c3ltd29ya3MubmV0L3Jvb3QtY2EtMDIuY3JsMA0GCSqGSIb3DQEBCwUAA4IBAQCj
9pNCDLPfhZJtS+vWRw4ADOM2eEuNmXnYlxa1pi52YdRDUdibvjchSxgxt5lYWvpU
lhATYjW4zbUh9SNfuIvXX9zBYWLGjmn7FFseFLX7htGnJXZkiR5G4xBcSQ0xgGrM
UBmXHkjltsIsjQhHzksMkNiEo4dtjvYf8IUr0D1auq5Avn7TXnuqmxbllNOE8KGC
+OHT+1al+hxFz0gF1ikTGT+5g6Kqrt8+5uQRCRJHXDpQ2CS671Zca+TbOKAV6GL8
1BKB28rKSCUeXUpXctQwJ3UMiN2cLsO63mX4l6FpcLBqoraIynizJpBiLl6iHU+6
hhU2UGDQ9zEnes3AC/Sf
-----END CERTIFICATE-----
