Certificate:
    Data:
        Version: 3 (0x2)
        Serial Number: 2 (0x2)
        Signature Algorithm: sha256WithRSAEncryption
        Issuer: C=US, ST=WY, L=Casper, O=Asymworks, LLC, OU=Asymworks PKI, CN=Asymworks Root CA
        Validity
            Not Before: May 21 03:31:26 2015 GMT
            Not After : May 20 03:31:26 2025 GMT
        Subject: C=US, ST=WY, L=Casper, O=Asymworks, LLC, OU=Asymworks PKI, CN=Asymworks Network CA
        Subject Public Key Info:
            Public Key Algorithm: rsaEncryption
            RSA Public Key: (2048 bit)
                Modulus (2048 bit):
                    00:db:15:68:c5:ec:b9:b3:1b:82:a9:6b:87:a9:09:
                    1e:fe:a1:24:14:23:52:80:3c:a0:d8:6a:96:3f:ef:
                    a7:0e:11:4b:f9:ef:5e:fd:f9:1f:be:ea:d4:ac:25:
                    9d:5f:7c:fb:c8:29:13:e8:07:5f:16:43:8e:ef:0a:
                    30:f5:91:3a:ba:66:cb:94:85:f7:cc:ca:56:67:9b:
                    4d:1b:36:2d:9b:62:aa:6e:10:28:b6:bd:6e:89:45:
                    6e:34:de:f5:cb:39:9f:e9:41:50:b5:49:00:b8:17:
                    41:11:5a:e1:db:6a:84:85:f7:b6:67:36:6f:a8:6c:
                    d3:41:fc:05:db:3c:99:62:6f:29:8d:5e:23:12:42:
                    4b:cd:8b:0d:f2:ad:7c:2b:2a:0a:af:71:54:5c:13:
                    d6:3e:16:fb:d4:e3:68:9e:9a:7a:88:92:7d:1a:f2:
                    8f:c1:be:bb:40:98:2d:e1:a0:0a:a1:a5:75:a7:c9:
                    e3:d9:d4:81:c1:db:e3:bb:79:65:60:12:36:b7:aa:
                    d3:48:57:4a:ea:ed:5b:f9:5d:aa:d7:66:6d:81:76:
                    82:da:83:54:f6:8a:34:f1:1a:2c:fe:37:ac:ce:64:
                    e2:b5:a1:ad:d4:77:23:d1:8e:2e:49:78:94:97:4e:
                    ca:62:81:39:2f:11:23:bb:18:90:71:a7:a5:4e:ae:
                    d8:93
                Exponent: 65537 (0x10001)
        X509v3 extensions:
            X509v3 Key Usage: critical
                Certificate Sign, CRL Sign
            X509v3 Basic Constraints: critical
                CA:TRUE, pathlen:0
            X509v3 Subject Key Identifier: 
                38:02:6B:26:3C:FC:C0:87:BE:C9:41:EB:65:BB:D1:27:4D:CC:7A:E9
            X509v3 Authority Key Identifier: 
                keyid:31:C1:12:FE:74:E1:56:41:25:AD:03:64:1E:C4:13:EA:2C:61:19:D3

            Authority Information Access: 
                CA Issuers - URI:http://pki.asymworks.net/root-ca.cer

            X509v3 CRL Distribution Points: 
                URI:http://pki.asymworks.net/root-ca.crl

    Signature Algorithm: sha256WithRSAEncryption
        7d:57:33:9b:3f:cf:6c:59:09:d0:72:cc:e3:5a:f6:1b:d3:2d:
        81:c0:76:3b:b2:5f:15:b2:db:36:87:b9:16:20:dc:0d:4e:84:
        cc:ac:04:6b:b0:78:c1:22:08:43:07:8a:2e:a2:2f:00:f6:08:
        b3:a6:58:37:ba:ca:75:8c:0e:02:60:5c:22:a9:db:ff:5a:c0:
        40:0d:09:69:86:a2:1e:66:ef:8b:2f:2a:70:3c:a9:b6:68:f5:
        f1:05:ab:e0:89:bc:67:09:ea:2a:2c:f7:4a:08:a6:b1:83:af:
        b2:ef:d7:48:60:f9:54:05:3f:8f:14:ba:5f:2e:42:79:4f:35:
        53:d6:56:67:3b:ed:68:d7:39:d8:6e:25:93:88:50:fd:f7:98:
        61:86:37:5f:39:81:11:eb:ba:46:db:52:3a:bb:8b:28:28:71:
        5c:87:d3:3d:a2:e2:dd:f3:bb:24:b1:d2:20:8e:c4:96:0b:2f:
        ce:a7:3c:e8:1e:89:00:87:d0:b7:b3:f9:82:86:fd:db:58:ca:
        02:eb:2d:b0:c5:5a:2b:10:5c:cc:ff:84:e3:d9:20:0e:ec:91:
        32:90:14:0d:e1:a3:4c:1b:63:ab:16:1b:49:7a:0f:7b:9e:03:
        79:3a:d9:a2:ae:43:4c:72:b5:3b:18:e0:85:cb:ab:d0:93:5b:
        00:11:41:0c
-----BEGIN CERTIFICATE-----
MIIETzCCAzegAwIBAgIBAjANBgkqhkiG9w0BAQsFADB4MQswCQYDVQQGEwJVUzEL
MAkGA1UECAwCV1kxDzANBgNVBAcMBkNhc3BlcjEXMBUGA1UECgwOQXN5bXdvcmtz
LCBMTEMxFjAUBgNVBAsMDUFzeW13b3JrcyBQS0kxGjAYBgNVBAMMEUFzeW13b3Jr
cyBSb290IENBMB4XDTE1MDUyMTAzMzEyNloXDTI1MDUyMDAzMzEyNlowezELMAkG
A1UEBhMCVVMxCzAJBgNVBAgMAldZMQ8wDQYDVQQHDAZDYXNwZXIxFzAVBgNVBAoM
DkFzeW13b3JrcywgTExDMRYwFAYDVQQLDA1Bc3ltd29ya3MgUEtJMR0wGwYDVQQD
DBRBc3ltd29ya3MgTmV0d29yayBDQTCCASIwDQYJKoZIhvcNAQEBBQADggEPADCC
AQoCggEBANsVaMXsubMbgqlrh6kJHv6hJBQjUoA8oNhqlj/vpw4RS/nvXv35H77q
1KwlnV98+8gpE+gHXxZDju8KMPWROrpmy5SF98zKVmebTRs2LZtiqm4QKLa9bolF
bjTe9cs5n+lBULVJALgXQRFa4dtqhIX3tmc2b6hs00H8Bds8mWJvKY1eIxJCS82L
DfKtfCsqCq9xVFwT1j4W+9TjaJ6aeoiSfRryj8G+u0CYLeGgCqGldafJ49nUgcHb
47t5ZWASNreq00hXSurtW/ldqtdmbYF2gtqDVPaKNPEaLP43rM5k4rWhrdR3I9GO
Lkl4lJdOymKBOS8RI7sYkHGnpU6u2JMCAwEAAaOB4DCB3TAOBgNVHQ8BAf8EBAMC
AQYwEgYDVR0TAQH/BAgwBgEB/wIBADAdBgNVHQ4EFgQUOAJrJjz8wIe+yUHrZbvR
J03MeukwHwYDVR0jBBgwFoAUMcES/nThVkElrQNkHsQT6ixhGdMwQAYIKwYBBQUH
AQEENDAyMDAGCCsGAQUFBzAChiRodHRwOi8vcGtpLmFzeW13b3Jrcy5uZXQvcm9v
dC1jYS5jZXIwNQYDVR0fBC4wLDAqoCigJoYkaHR0cDovL3BraS5hc3ltd29ya3Mu
bmV0L3Jvb3QtY2EuY3JsMA0GCSqGSIb3DQEBCwUAA4IBAQB9VzObP89sWQnQcszj
WvYb0y2BwHY7sl8Vsts2h7kWINwNToTMrARrsHjBIghDB4ouoi8A9gizplg3usp1
jA4CYFwiqdv/WsBADQlphqIeZu+LLypwPKm2aPXxBavgibxnCeoqLPdKCKaxg6+y
79dIYPlUBT+PFLpfLkJ5TzVT1lZnO+1o1znYbiWTiFD995hhhjdfOYER67pG21I6
u4soKHFch9M9ouLd87sksdIgjsSWCy/OpzzoHokAh9C3s/mChv3bWMoC6y2wxVor
EFzM/4Tj2SAO7JEykBQN4aNMG2OrFhtJeg97ngN5OtmirkNMcrU7GOCFy6vQk1sA
EUEM
-----END CERTIFICATE-----
