Certificate:
    Data:
        Version: 3 (0x2)
        Serial Number: 1 (0x1)
        Signature Algorithm: sha256WithRSAEncryption
        Issuer: C=US, ST=WY, L=Casper, O=Asymworks, LLC, OU=Asymworks PKI, CN=Asymworks Root CA 02
        Validity
            Not Before: May 24 22:54:13 2025 GMT
            Not After : May 18 22:54:13 2050 GMT
        Subject: C=US, ST=WY, L=Casper, O=Asymworks, LLC, OU=Asymworks PKI, CN=Asymworks Root CA 02
        Subject Public Key Info:
            Public Key Algorithm: rsaEncryption
                Public-Key: (2048 bit)
                Modulus:
                    00:c0:7a:48:85:24:9b:55:bf:dc:0a:39:db:59:40:
                    f0:fa:f1:a3:37:7f:9a:e1:e2:a5:0e:00:90:1c:8d:
                    88:8f:e5:03:0d:91:87:bf:5f:43:0d:2c:ca:5f:bd:
                    cd:d3:25:ca:28:cc:db:2c:b6:ed:88:c2:30:06:5b:
                    21:fb:4e:a6:63:b9:30:81:5b:f9:67:13:04:24:3b:
                    cb:e1:aa:c6:a2:25:11:c1:79:7c:09:ab:03:43:e9:
                    8e:d2:73:b4:4a:76:bd:e1:6b:d4:b0:41:cb:df:0a:
                    da:50:18:6d:96:2e:2a:1e:1c:1a:b3:b2:55:9f:1e:
                    ed:13:f7:0e:6e:13:3e:e8:fc:1c:47:62:84:96:16:
                    03:97:e8:ea:de:38:46:fe:75:20:d0:7c:26:ac:77:
                    cc:0b:52:00:93:5d:db:0d:6b:1f:f6:01:63:f4:f2:
                    9c:fa:a9:30:54:05:cf:05:df:d2:8f:43:aa:64:77:
                    ff:44:eb:a7:08:a6:cc:f1:b5:c5:83:b3:38:e4:0e:
                    1b:5a:a3:ee:d4:a7:a4:34:da:84:a7:11:7a:bf:30:
                    c3:7f:55:5c:a0:d0:97:bd:34:af:66:44:ba:74:29:
                    60:3e:9e:73:83:fe:17:20:73:58:2e:2a:37:0b:cc:
                    c1:b9:4c:22:c4:6f:85:fe:21:ac:1c:10:28:6f:e0:
                    8c:d7
                Exponent: 65537 (0x10001)
        X509v3 extensions:
            X509v3 Key Usage: critical
                Certificate Sign, CRL Sign
            X509v3 Basic Constraints: critical
                CA:TRUE
            X509v3 Subject Key Identifier: 
                2F:EB:7D:42:0B:EA:30:43:94:D3:29:01:EE:94:07:AD:99:EB:F9:CF
            X509v3 Authority Key Identifier: 
                2F:EB:7D:42:0B:EA:30:43:94:D3:29:01:EE:94:07:AD:99:EB:F9:CF
    Signature Algorithm: sha256WithRSAEncryption
    Signature Value:
        8b:d4:19:25:8b:53:df:e6:f1:3c:f9:42:86:40:f3:10:29:0b:
        24:22:15:52:af:0c:01:44:7e:e1:a8:d0:86:f7:ba:90:e5:6b:
        a2:3e:db:34:6a:e4:2e:f1:46:19:a9:05:15:59:b8:09:af:0f:
        3a:26:f7:7b:98:f1:d9:ea:f5:98:d9:15:18:20:2e:16:d4:b5:
        39:cc:90:89:86:38:26:26:18:40:59:17:cd:da:b8:21:b1:07:
        df:15:b1:f3:68:99:dd:ea:64:87:3f:79:16:e1:c6:f0:12:a3:
        6b:cb:6d:b1:c2:16:47:e4:a7:0e:dd:ff:ad:6a:1a:41:3b:64:
        8a:9c:e6:55:3c:19:8e:ff:b3:31:c0:49:f6:af:bf:ed:d5:69:
        6f:43:83:93:54:a1:2d:e8:74:0f:53:eb:fe:a6:a0:71:87:c0:
        e1:33:c6:2e:52:32:b8:23:12:bb:5d:4e:9b:50:6a:08:63:94:
        20:61:d0:dc:20:b5:7c:3d:ca:a1:a7:28:54:67:b7:ac:65:e8:
        c3:3c:d9:4d:12:d4:b0:29:33:23:82:dc:1d:03:fb:b9:ef:ac:
        a6:ab:c5:da:2d:f0:68:b3:35:71:bf:5e:12:80:da:63:4a:2e:
        6e:c7:0d:51:b0:94:fb:fc:12:97:32:30:79:aa:13:25:1c:99:
        6e:99:8d:6a
-----BEGIN CERTIFICATE-----
MIID1jCCAr6gAwIBAgIBATANBgkqhkiG9w0BAQsFADB7MQswCQYDVQQGEwJVUzEL
MAkGA1UECAwCV1kxDzANBgNVBAcMBkNhc3BlcjEXMBUGA1UECgwOQXN5bXdvcmtz
LCBMTEMxFjAUBgNVBAsMDUFzeW13b3JrcyBQS0kxHTAbBgNVBAMMFEFzeW13b3Jr
cyBSb290IENBIDAyMCAXDTI1MDUyNDIyNTQxM1oYDzIwNTAwNTE4MjI1NDEzWjB7
MQswCQYDVQQGEwJVUzELMAkGA1UECAwCV1kxDzANBgNVBAcMBkNhc3BlcjEXMBUG
A1UECgwOQXN5bXdvcmtzLCBMTEMxFjAUBgNVBAsMDUFzeW13b3JrcyBQS0kxHTAb
BgNVBAMMFEFzeW13b3JrcyBSb290IENBIDAyMIIBIjANBgkqhkiG9w0BAQEFAAOC
AQ8AMIIBCgKCAQEAwHpIhSSbVb/cCjnbWUDw+vGjN3+a4eKlDgCQHI2Ij+UDDZGH
v19DDSzKX73N0yXKKMzbLLbtiMIwBlsh+06mY7kwgVv5ZxMEJDvL4arGoiURwXl8
CasDQ+mO0nO0Sna94WvUsEHL3wraUBhtli4qHhwas7JVnx7tE/cObhM+6PwcR2KE
lhYDl+jq3jhG/nUg0HwmrHfMC1IAk13bDWsf9gFj9PKc+qkwVAXPBd/Sj0OqZHf/
ROunCKbM8bXFg7M45A4bWqPu1KekNNqEpxF6vzDDf1VcoNCXvTSvZkS6dClgPp5z
g/4XIHNYLio3C8zBuUwixG+F/iGsHBAob+CM1wIDAQABo2MwYTAOBgNVHQ8BAf8E
BAMCAQYwDwYDVR0TAQH/BAUwAwEB/zAdBgNVHQ4EFgQUL+t9QgvqMEOU0ykB7pQH
rZnr+c8wHwYDVR0jBBgwFoAUL+t9QgvqMEOU0ykB7pQHrZnr+c8wDQYJKoZIhvcN
AQELBQADggEBAIvUGSWLU9/m8Tz5QoZA8xApCyQiFVKvDAFEfuGo0Ib3upDla6I+
2zRq5C7xRhmpBRVZuAmvDzom93uY8dnq9ZjZFRggLhbUtTnMkImGOCYmGEBZF83a
uCGxB98VsfNomd3qZIc/eRbhxvASo2vLbbHCFkfkpw7d/61qGkE7ZIqc5lU8GY7/
szHASfavv+3VaW9Dg5NUoS3odA9T6/6moHGHwOEzxi5SMrgjErtdTptQaghjlCBh
0NwgtXw9yqGnKFRnt6xl6MM82U0S1LApMyOC3B0D+7nvrKarxdot8GizNXG/XhKA
2mNKLm7HDVGwlPv8EpcyMHmqEyUcmW6ZjWo=
-----END CERTIFICATE-----
